target datalayout = "e-m:e-p270:32:32-p271:32:32-p272:64:64-i64:64-i128:128-f80:128-n8:16:32:64-S128"
target triple = "x86_64-pc-linux-gnu"

%"class.gmx::ArrayRef.64" = type { %"struct.gmx::ArrayRefIter.65", %"struct.gmx::ArrayRefIter.65" }
%"struct.gmx::ArrayRefIter.65" = type { ptr }

@.str.86 = private unnamed_addr constant [38 x i8] c"Error: Multiple groups '%s' selected\0A\00", align 1

; Function Attrs: mustprogress nounwind uwtable
define linkonce_odr noundef nonnull align 8 dereferenceable(8) ptr @_ZNK3gmx12ArrayRefIterIKPKcEdeEv(ptr noundef nonnull align 8 dereferenceable(8) %0) #2 comdat align 2 {
  %2 = alloca ptr, align 8
  store ptr %0, ptr %2, align 8
  %3 = load ptr, ptr %2, align 8
  %4 = getelementptr inbounds %"struct.gmx::ArrayRefIter.65", ptr %3, i32 0, i32 0
  %5 = load ptr, ptr %4, align 8
  ret ptr %5
}

; Function Attrs: mustprogress nounwind uwtable
define linkonce_odr noundef nonnull align 8 dereferenceable(8) ptr @_ZN3gmx12ArrayRefIterIKPKcEpLEl(ptr noundef nonnull align 8 dereferenceable(8) %0, i64 noundef %1) #2 comdat align 2 {
  %3 = alloca ptr, align 8
  %4 = alloca i64, align 8
  store ptr %0, ptr %3, align 8
  store i64 %1, ptr %4, align 8
  %5 = load ptr, ptr %3, align 8
  %6 = load i64, ptr %4, align 8
  %7 = getelementptr inbounds %"struct.gmx::ArrayRefIter.65", ptr %5, i32 0, i32 0
  %8 = load ptr, ptr %7, align 8
  %9 = getelementptr inbounds ptr, ptr %8, i64 %6
  store ptr %9, ptr %7, align 8
  ret ptr %5
}

; Function Attrs: mustprogress nounwind uwtable
define linkonce_odr noundef nonnull align 8 dereferenceable(8) ptr @_ZNK3gmx5boost14stl_interfaces2v118iterator_interfaceINS_12ArrayRefIterIKPKcEESt26random_access_iterator_tagS7_RS7_PS7_lvE7derivedEv(ptr noundef nonnull align 1 dereferenceable(1) %0) #2 comdat align 2 {
  %2 = alloca ptr, align 8
  store ptr %0, ptr %2, align 8
  %3 = load ptr, ptr %2, align 8
  ret ptr %3
}

; Function Attrs: mustprogress nounwind uwtable
define linkonce_odr noundef i64 @_ZNK3gmx12ArrayRefIterIKPKcEmiES4_(ptr noundef nonnull align 8 dereferenceable(8) %0, ptr %1) #2 comdat align 2 {
  %3 = alloca %"struct.gmx::ArrayRefIter.65", align 8
  %4 = alloca ptr, align 8
  %5 = getelementptr inbounds %"struct.gmx::ArrayRefIter.65", ptr %3, i32 0, i32 0
  store ptr %1, ptr %5, align 8
  store ptr %0, ptr %4, align 8
  %6 = load ptr, ptr %4, align 8
  %7 = getelementptr inbounds %"struct.gmx::ArrayRefIter.65", ptr %6, i32 0, i32 0
  %8 = load ptr, ptr %7, align 8
  %9 = getelementptr inbounds %"struct.gmx::ArrayRefIter.65", ptr %3, i32 0, i32 0
  %10 = load ptr, ptr %9, align 8
  %11 = ptrtoint ptr %8 to i64
  %12 = ptrtoint ptr %10 to i64
  %13 = sub i64 %11, %12
  %14 = sdiv exact i64 %13, 8
  ret i64 %14
}

; Function Attrs: mustprogress nounwind uwtable
define linkonce_odr noundef nonnull align 8 dereferenceable(8) ptr @_ZNK3gmx5boost14stl_interfaces2v118iterator_interfaceINS_12ArrayRefIterIKPKcEESt26random_access_iterator_tagS7_RS7_PS7_lvEixIS8_EEDTcmpLclsr3stdE7declvalIRT_EEfp_declsr3stdE7declvalISF_EEEl(ptr noundef nonnull align 1 dereferenceable(1) %0, i64 noundef %1) #2 comdat align 2 {
  %3 = alloca ptr, align 8
  %4 = alloca i64, align 8
  %5 = alloca %"struct.gmx::ArrayRefIter.65", align 8
  store ptr %0, ptr %3, align 8
  store i64 %1, ptr %4, align 8
  %6 = load ptr, ptr %3, align 8
  %7 = call noundef nonnull align 8 dereferenceable(8) ptr @_ZNK3gmx5boost14stl_interfaces2v118iterator_interfaceINS_12ArrayRefIterIKPKcEESt26random_access_iterator_tagS7_RS7_PS7_lvE7derivedEv(ptr noundef nonnull align 1 dereferenceable(1) %6) #12
  call void @llvm.memcpy.p0.p0.i64(ptr align 8 %5, ptr align 8 %7, i64 8, i1 false)
  %8 = load i64, ptr %4, align 8
  %9 = call noundef nonnull align 8 dereferenceable(8) ptr @_ZN3gmx12ArrayRefIterIKPKcEpLEl(ptr noundef nonnull align 8 dereferenceable(8) %5, i64 noundef %8) #12
  %10 = call noundef nonnull align 8 dereferenceable(8) ptr @_ZNK3gmx12ArrayRefIterIKPKcEdeEv(ptr noundef nonnull align 8 dereferenceable(8) %5) #12
  ret ptr %10
}

; Function Attrs: mustprogress nounwind uwtable
define linkonce_odr noundef i64 @_ZNK3gmx8ArrayRefIKPKcE4sizeEv(ptr noundef nonnull align 8 dereferenceable(16) %0) #2 comdat align 2 {
  %2 = alloca ptr, align 8
  %3 = alloca %"struct.gmx::ArrayRefIter.65", align 8
  store ptr %0, ptr %2, align 8
  %4 = load ptr, ptr %2, align 8
  %5 = getelementptr inbounds %"class.gmx::ArrayRef.64", ptr %4, i32 0, i32 1
  %6 = getelementptr inbounds %"class.gmx::ArrayRef.64", ptr %4, i32 0, i32 0
  call void @llvm.memcpy.p0.p0.i64(ptr align 8 %3, ptr align 8 %6, i64 8, i1 false)
  %7 = getelementptr inbounds %"struct.gmx::ArrayRefIter.65", ptr %3, i32 0, i32 0
  %8 = load ptr, ptr %7, align 8
  %9 = call noundef i64 @_ZNK3gmx12ArrayRefIterIKPKcEmiES4_(ptr noundef nonnull align 8 dereferenceable(8) %5, ptr %8) #12
  ret i64 %9
}

; Function Attrs: mustprogress nounwind uwtable
define linkonce_odr void @_ZN3gmx12ArrayRefIterIKPKcEC2EPS3_(ptr noundef nonnull align 8 dereferenceable(8) %0, ptr noundef %1) unnamed_addr #2 comdat align 2 {
  %3 = alloca ptr, align 8
  %4 = alloca ptr, align 8
  store ptr %0, ptr %3, align 8
  store ptr %1, ptr %4, align 8
  %5 = load ptr, ptr %3, align 8
  %6 = getelementptr inbounds %"struct.gmx::ArrayRefIter.65", ptr %5, i32 0, i32 0
  %7 = load ptr, ptr %4, align 8
  store ptr %7, ptr %6, align 8
  ret void
}

; Function Attrs: mustprogress nounwind uwtable
define internal void @_ZL9minstringPc(ptr noundef %0) #2 {
  %2 = alloca ptr, align 8
  %3 = alloca i32, align 4
  store ptr %0, ptr %2, align 8
  store i32 0, ptr %3, align 4
  br label %4

4:                                                ; preds = %24, %1
  %5 = load i32, ptr %3, align 4
  %6 = load ptr, ptr %2, align 8
  %7 = call i64 @strlen(ptr noundef %6) #15
  %8 = trunc i64 %7 to i32
  %9 = icmp slt i32 %5, %8
  br i1 %9, label %10, label %27

10:                                               ; preds = %4
  %11 = load ptr, ptr %2, align 8
  %12 = load i32, ptr %3, align 4
  %13 = sext i32 %12 to i64
  %14 = getelementptr inbounds i8, ptr %11, i64 %13
  %15 = load i8, ptr %14, align 1
  %16 = sext i8 %15 to i32
  %17 = icmp eq i32 %16, 45
  br i1 %17, label %18, label %23

18:                                               ; preds = %10
  %19 = load ptr, ptr %2, align 8
  %20 = load i32, ptr %3, align 4
  %21 = sext i32 %20 to i64
  %22 = getelementptr inbounds i8, ptr %19, i64 %21
  store i8 95, ptr %22, align 1
  br label %23

23:                                               ; preds = %18, %10
  br label %24

24:                                               ; preds = %23
  %25 = load i32, ptr %3, align 4
  %26 = add nsw i32 %25, 1
  store i32 %26, ptr %3, align 4
  br label %4, !llvm.loop !46

27:                                               ; preds = %4
  ret void
}

; Function Attrs: mustprogress nounwind uwtable
define internal noundef ptr @_ZL14indexGroupNamePKc(ptr noundef %0) #2 {
  %2 = alloca ptr, align 8
  store ptr %0, ptr %2, align 8
  %3 = load ptr, ptr %2, align 8
  ret ptr %3
}

; Function Attrs: mustprogress nounwind uwtable
define linkonce_odr noundef nonnull align 8 dereferenceable(8) ptr @_ZNK3gmx8ArrayRefIKPKcEixEm(ptr noundef nonnull align 8 dereferenceable(16) %0, i64 noundef %1) #2 comdat align 2 {
  %3 = alloca ptr, align 8
  %4 = alloca i64, align 8
  store ptr %0, ptr %3, align 8
  store i64 %1, ptr %4, align 8
  %5 = load ptr, ptr %3, align 8
  %6 = getelementptr inbounds %"class.gmx::ArrayRef.64", ptr %5, i32 0, i32 0
  %7 = load i64, ptr %4, align 8
  %8 = call noundef nonnull align 8 dereferenceable(8) ptr @_ZNK3gmx5boost14stl_interfaces2v118iterator_interfaceINS_12ArrayRefIterIKPKcEESt26random_access_iterator_tagS7_RS7_PS7_lvEixIS8_EEDTcmpLclsr3stdE7declvalIRT_EEfp_declsr3stdE7declvalISF_EEEl(ptr noundef nonnull align 1 dereferenceable(1) %6, i64 noundef %7) #12
  ret ptr %8
}

; Function Attrs: mustprogress uwtable
define linkonce_odr noundef i64 @_ZNK3gmx8ArrayRefIKPKcE5ssizeEv(ptr noundef nonnull align 8 dereferenceable(16) %0) #0 comdat align 2 {
  %2 = alloca ptr, align 8
  store ptr %0, ptr %2, align 8
  %3 = load ptr, ptr %2, align 8
  %4 = call noundef i64 @_ZNK3gmx8ArrayRefIKPKcE4sizeEv(ptr noundef nonnull align 8 dereferenceable(16) %3)
  ret i64 %4
}

; Function Attrs: mustprogress nounwind uwtable
define linkonce_odr void @_ZN3gmx8ArrayRefIKPKcEC2Ev(ptr noundef nonnull align 8 dereferenceable(16) %0) unnamed_addr #2 comdat align 2 {
  %2 = alloca ptr, align 8
  store ptr %0, ptr %2, align 8
  %3 = load ptr, ptr %2, align 8
  %4 = getelementptr inbounds %"class.gmx::ArrayRef.64", ptr %3, i32 0, i32 0
  call void @_ZN3gmx12ArrayRefIterIKPKcEC2EPS3_(ptr noundef nonnull align 8 dereferenceable(8) %4, ptr noundef null) #12
  %5 = getelementptr inbounds %"class.gmx::ArrayRef.64", ptr %3, i32 0, i32 1
  call void @_ZN3gmx12ArrayRefIterIKPKcEC2EPS3_(ptr noundef nonnull align 8 dereferenceable(8) %5, ptr noundef null) #12
  ret void
}

; Function Attrs: mustprogress nounwind uwtable
define linkonce_odr void @_ZN3gmx8ArrayRefIKPKcEC2EPS3_S5_(ptr noundef nonnull align 8 dereferenceable(16) %0, ptr noundef %1, ptr noundef %2) unnamed_addr #2 comdat align 2 {
  %4 = alloca ptr, align 8
  %5 = alloca ptr, align 8
  %6 = alloca ptr, align 8
  store ptr %0, ptr %4, align 8
  store ptr %1, ptr %5, align 8
  store ptr %2, ptr %6, align 8
  %7 = load ptr, ptr %4, align 8
  %8 = getelementptr inbounds %"class.gmx::ArrayRef.64", ptr %7, i32 0, i32 0
  %9 = load ptr, ptr %5, align 8
  call void @_ZN3gmx12ArrayRefIterIKPKcEC2EPS3_(ptr noundef nonnull align 8 dereferenceable(8) %8, ptr noundef %9) #12
  %10 = getelementptr inbounds %"class.gmx::ArrayRef.64", ptr %7, i32 0, i32 1
  %11 = load ptr, ptr %6, align 8
  call void @_ZN3gmx12ArrayRefIterIKPKcEC2EPS3_(ptr noundef nonnull align 8 dereferenceable(8) %10, ptr noundef %11) #12
  ret void
}

; Function Attrs: mustprogress uwtable
define internal noundef i32 @_ZL18findGroupTemplatedIKPKcEiS1_N3gmx8ArrayRefIT_EE(ptr noundef %0, ptr %1, ptr %2) #0 {
  %4 = alloca %"class.gmx::ArrayRef.64", align 8
  %5 = alloca ptr, align 8
  %6 = alloca [4096 x i8], align 16
  %7 = alloca i8, align 1
  %8 = alloca i32, align 4
  %9 = alloca i32, align 4
  %10 = alloca i64, align 8
  %11 = alloca i64, align 8
  %12 = alloca [4096 x i8], align 16
  %13 = alloca i64, align 8
  %14 = getelementptr inbounds { ptr, ptr }, ptr %4, i32 0, i32 0
  store ptr %1, ptr %14, align 8
  %15 = getelementptr inbounds { ptr, ptr }, ptr %4, i32 0, i32 1
  store ptr %2, ptr %15, align 8
  store ptr %0, ptr %5, align 8
  store i8 0, ptr %7, align 1
  %16 = load ptr, ptr %5, align 8
  %17 = call i64 @strlen(ptr noundef %16) #15
  %18 = trunc i64 %17 to i32
  store i32 %18, ptr %8, align 4
  store i32 -1, ptr %9, align 4
  store i64 0, ptr %10, align 8
  br label %19

19:                                               ; preds = %39, %3
  %20 = load i64, ptr %10, align 8
  %21 = call noundef i64 @_ZNK3gmx8ArrayRefIKPKcE5ssizeEv(ptr noundef nonnull align 8 dereferenceable(16) %4)
  %22 = icmp slt i64 %20, %21
  br i1 %22, label %23, label %42

23:                                               ; preds = %19
  %24 = load ptr, ptr %5, align 8
  %25 = load i64, ptr %10, align 8
  %26 = call noundef nonnull align 8 dereferenceable(8) ptr @_ZNK3gmx8ArrayRefIKPKcEixEm(ptr noundef nonnull align 8 dereferenceable(16) %4, i64 noundef %25)
  %27 = load ptr, ptr %26, align 8
  %28 = call noundef ptr @_ZL14indexGroupNamePKc(ptr noundef %27)
  %29 = call noundef i32 @_Z18gmx_strcasecmp_minPKcS0_(ptr noundef %24, ptr noundef %28)
  %30 = icmp eq i32 %29, 0
  br i1 %30, label %31, label %38

31:                                               ; preds = %23
  %32 = load i32, ptr %9, align 4
  %33 = icmp ne i32 %32, -1
  br i1 %33, label %34, label %35

34:                                               ; preds = %31
  store i8 1, ptr %7, align 1
  br label %35

35:                                               ; preds = %34, %31
  %36 = load i64, ptr %10, align 8
  %37 = trunc i64 %36 to i32
  store i32 %37, ptr %9, align 4
  br label %38

38:                                               ; preds = %35, %23
  br label %39

39:                                               ; preds = %38
  %40 = load i64, ptr %10, align 8
  %41 = add nsw i64 %40, 1
  store i64 %41, ptr %10, align 8
  br label %19, !llvm.loop !47

42:                                               ; preds = %19
  %43 = load i32, ptr %9, align 4
  %44 = icmp eq i32 %43, -1
  br i1 %44, label %45, label %71

45:                                               ; preds = %42
  store i64 0, ptr %11, align 8
  br label %46

46:                                               ; preds = %67, %45
  %47 = load i64, ptr %11, align 8
  %48 = call noundef i64 @_ZNK3gmx8ArrayRefIKPKcE5ssizeEv(ptr noundef nonnull align 8 dereferenceable(16) %4)
  %49 = icmp slt i64 %47, %48
  br i1 %49, label %50, label %70

50:                                               ; preds = %46
  %51 = load ptr, ptr %5, align 8
  %52 = load i64, ptr %11, align 8
  %53 = call noundef nonnull align 8 dereferenceable(8) ptr @_ZNK3gmx8ArrayRefIKPKcEixEm(ptr noundef nonnull align 8 dereferenceable(16) %4, i64 noundef %52)
  %54 = load ptr, ptr %53, align 8
  %55 = call noundef ptr @_ZL14indexGroupNamePKc(ptr noundef %54)
  %56 = load i32, ptr %8, align 4
  %57 = call noundef i32 @_Z19gmx_strncasecmp_minPKcS0_i(ptr noundef %51, ptr noundef %55, i32 noundef %56)
  %58 = icmp eq i32 %57, 0
  br i1 %58, label %59, label %66

59:                                               ; preds = %50
  %60 = load i32, ptr %9, align 4
  %61 = icmp ne i32 %60, -1
  br i1 %61, label %62, label %63

62:                                               ; preds = %59
  store i8 1, ptr %7, align 1
  br label %63

63:                                               ; preds = %62, %59
  %64 = load i64, ptr %11, align 8
  %65 = trunc i64 %64 to i32
  store i32 %65, ptr %9, align 4
  br label %66

66:                                               ; preds = %63, %50
  br label %67

67:                                               ; preds = %66
  %68 = load i64, ptr %11, align 8
  %69 = add nsw i64 %68, 1
  store i64 %69, ptr %11, align 8
  br label %46, !llvm.loop !48

70:                                               ; preds = %46
  br label %71

71:                                               ; preds = %70, %42
  %72 = load i32, ptr %9, align 4
  %73 = icmp eq i32 %72, -1
  br i1 %73, label %74, label %110

74:                                               ; preds = %71
  %75 = getelementptr inbounds [4096 x i8], ptr %12, i64 0, i64 0
  %76 = load ptr, ptr %5, align 8
  %77 = call ptr @strncpy(ptr noundef %75, ptr noundef %76, i64 noundef 4095) #12
  %78 = getelementptr inbounds [4096 x i8], ptr %12, i64 0, i64 4095
  store i8 0, ptr %78, align 1
  %79 = getelementptr inbounds [4096 x i8], ptr %12, i64 0, i64 0
  call void @_Z8upstringPc(ptr noundef %79)
  %80 = getelementptr inbounds [4096 x i8], ptr %12, i64 0, i64 0
  call void @_ZL9minstringPc(ptr noundef %80)
  store i64 0, ptr %13, align 8
  br label %81

81:                                               ; preds = %106, %74
  %82 = load i64, ptr %13, align 8
  %83 = call noundef i64 @_ZNK3gmx8ArrayRefIKPKcE5ssizeEv(ptr noundef nonnull align 8 dereferenceable(16) %4)
  %84 = icmp slt i64 %82, %83
  br i1 %84, label %85, label %109

85:                                               ; preds = %81
  %86 = getelementptr inbounds [4096 x i8], ptr %6, i64 0, i64 0
  %87 = load i64, ptr %13, align 8
  %88 = call noundef nonnull align 8 dereferenceable(8) ptr @_ZNK3gmx8ArrayRefIKPKcEixEm(ptr noundef nonnull align 8 dereferenceable(16) %4, i64 noundef %87)
  %89 = load ptr, ptr %88, align 8
  %90 = call noundef ptr @_ZL14indexGroupNamePKc(ptr noundef %89)
  %91 = call ptr @strncpy(ptr noundef %86, ptr noundef %90, i64 noundef 4095) #12
  %92 = getelementptr inbounds [4096 x i8], ptr %6, i64 0, i64 0
  call void @_Z8upstringPc(ptr noundef %92)
  %93 = getelementptr inbounds [4096 x i8], ptr %6, i64 0, i64 0
  call void @_ZL9minstringPc(ptr noundef %93)
  %94 = getelementptr inbounds [4096 x i8], ptr %6, i64 0, i64 0
  %95 = getelementptr inbounds [4096 x i8], ptr %12, i64 0, i64 0
  %96 = call noundef ptr @strstr(ptr noundef %94, ptr noundef %95) #15
  %97 = icmp ne ptr %96, null
  br i1 %97, label %98, label %105

98:                                               ; preds = %85
  %99 = load i32, ptr %9, align 4
  %100 = icmp ne i32 %99, -1
  br i1 %100, label %101, label %102

101:                                              ; preds = %98
  store i8 1, ptr %7, align 1
  br label %102

102:                                              ; preds = %101, %98
  %103 = load i64, ptr %13, align 8
  %104 = trunc i64 %103 to i32
  store i32 %104, ptr %9, align 4
  br label %105

105:                                              ; preds = %102, %85
  br label %106

106:                                              ; preds = %105
  %107 = load i64, ptr %13, align 8
  %108 = add nsw i64 %107, 1
  store i64 %108, ptr %13, align 8
  br label %81, !llvm.loop !49

109:                                              ; preds = %81
  br label %110

110:                                              ; preds = %109, %71
  %111 = load i8, ptr %7, align 1
  %112 = trunc i8 %111 to i1
  br i1 %112, label %113, label %116

113:                                              ; preds = %110
  %114 = load ptr, ptr %5, align 8
  %115 = call i32 (ptr, ...) @printf(ptr noundef @.str.86, ptr noundef %114)
  store i32 -1, ptr %9, align 4
  br label %116

116:                                              ; preds = %113, %110
  %117 = load i32, ptr %9, align 4
  ret i32 %117
}

; Function Attrs: mustprogress uwtable
define linkonce_odr { ptr, ptr } @_ZN3gmx22constArrayRefFromArrayIPKcEENS_8ArrayRefIKT_EEPS5_m(ptr noundef %0, i64 noundef %1) #0 comdat {
  %3 = alloca %"class.gmx::ArrayRef.64", align 8
  %4 = alloca ptr, align 8
  %5 = alloca i64, align 8
  store ptr %0, ptr %4, align 8
  store i64 %1, ptr %5, align 8
  %6 = load ptr, ptr %4, align 8
  %7 = icmp ne ptr %6, null
  br i1 %7, label %8, label %13

8:                                                ; preds = %2
  %9 = load ptr, ptr %4, align 8
  %10 = load ptr, ptr %4, align 8
  %11 = load i64, ptr %5, align 8
  %12 = getelementptr inbounds ptr, ptr %10, i64 %11
  call void @_ZN3gmx8ArrayRefIKPKcEC2EPS3_S5_(ptr noundef nonnull align 8 dereferenceable(16) %3, ptr noundef %9, ptr noundef %12)
  br label %14

13:                                               ; preds = %2
  call void @_ZN3gmx8ArrayRefIKPKcEC2Ev(ptr noundef nonnull align 8 dereferenceable(16) %3)
  br label %14

14:                                               ; preds = %13, %8
  %15 = load { ptr, ptr }, ptr %3, align 8
  ret { ptr, ptr } %15
}

; Function Attrs: mustprogress uwtable
define noundef i32 @_Z10find_groupPKciPPc(ptr noundef %0, i32 noundef %1, ptr noundef %2) #0 {
  %4 = alloca ptr, align 8
  %5 = alloca i32, align 4
  %6 = alloca ptr, align 8
  %7 = alloca %"class.gmx::ArrayRef.64", align 8
  store ptr %0, ptr %4, align 8
  store i32 %1, ptr %5, align 4
  store ptr %2, ptr %6, align 8
  %8 = load ptr, ptr %4, align 8
  %9 = load ptr, ptr %6, align 8
  %10 = load i32, ptr %5, align 4
  %11 = sext i32 %10 to i64
  %12 = call { ptr, ptr } @_ZN3gmx22constArrayRefFromArrayIPKcEENS_8ArrayRefIKT_EEPS5_m(ptr noundef %9, i64 noundef %11)
  %13 = getelementptr inbounds { ptr, ptr }, ptr %7, i32 0, i32 0
  %14 = extractvalue { ptr, ptr } %12, 0
  store ptr %14, ptr %13, align 8
  %15 = getelementptr inbounds { ptr, ptr }, ptr %7, i32 0, i32 1
  %16 = extractvalue { ptr, ptr } %12, 1
  store ptr %16, ptr %15, align 8
  %17 = getelementptr inbounds { ptr, ptr }, ptr %7, i32 0, i32 0
  %18 = load ptr, ptr %17, align 8
  %19 = getelementptr inbounds { ptr, ptr }, ptr %7, i32 0, i32 1
  %20 = load ptr, ptr %19, align 8
  %21 = call noundef i32 @_ZL18findGroupTemplatedIKPKcEiS1_N3gmx8ArrayRefIT_EE(ptr noundef %8, ptr %18, ptr %20)
  ret i32 %21
}