; Function Attrs: mustprogress uwtable
define noundef i32 @_Z10find_groupPKciPPc(ptr noundef %0, i32 noundef %1, ptr noundef %2) local_unnamed_addr #0 {
  %4 = alloca [4096 x i8], align 16
  %5 = alloca [4096 x i8], align 16
  %6 = sext i32 %1 to i64
  %.not.i = icmp eq ptr %2, null
  %7 = getelementptr inbounds ptr, ptr %2, i64 %6
  %spec.select.i = select i1 %.not.i, ptr null, ptr %7
  call void @llvm.lifetime.start.p0(i64 4096, ptr nonnull %4)
  call void @llvm.lifetime.start.p0(i64 4096, ptr nonnull %5)
  %8 = tail call i64 @strlen(ptr noundef nonnull dereferenceable(1) %0) #27
  %9 = trunc i64 %8 to i32
  %10 = ptrtoint ptr %spec.select.i to i64
  %11 = ptrtoint ptr %2 to i64
  %12 = sub i64 %10, %11
  %13 = ashr exact i64 %12, 3
  %14 = icmp sgt i64 %13, 0
  br i1 %14, label %.lr.ph.i, label %._crit_edge63.thread.i

.lr.ph.i:                                         ; preds = %3, %.lr.ph.i
  %.02556.i = phi i64 [ %21, %.lr.ph.i ], [ 0, %3 ]
  %.02655.i = phi i32 [ %.1.i, %.lr.ph.i ], [ -1, %3 ]
  %.02754.i = phi i1 [ %.229.i, %.lr.ph.i ], [ false, %3 ]
  %15 = getelementptr inbounds ptr, ptr %2, i64 %.02556.i
  %16 = load ptr, ptr %15, align 8
  %17 = tail call noundef i32 @_Z18gmx_strcasecmp_minPKcS0_(ptr noundef %0, ptr noundef %16)
  %18 = icmp eq i32 %17, 0
  %.not38.i = icmp ne i32 %.02655.i, -1
  %19 = trunc i64 %.02556.i to i32
  %20 = select i1 %18, i1 %.not38.i, i1 false
  %.229.i = select i1 %20, i1 true, i1 %.02754.i
  %.1.i = select i1 %18, i32 %19, i32 %.02655.i
  %21 = add nuw nsw i64 %.02556.i, 1
  %exitcond.not.i = icmp eq i64 %21, %13
  br i1 %exitcond.not.i, label %._crit_edge.i, label %.lr.ph.i, !llvm.loop !70

._crit_edge.i:                                    ; preds = %.lr.ph.i
  %22 = icmp eq i32 %.1.i, -1
  br i1 %22, label %.lr.ph62.i, label %.thread.i

.lr.ph62.i:                                       ; preds = %._crit_edge.i, %.lr.ph62.i
  %.02461.i = phi i64 [ %29, %.lr.ph62.i ], [ 0, %._crit_edge.i ]
  %.260.i = phi i32 [ %.3.i, %.lr.ph62.i ], [ -1, %._crit_edge.i ]
  %.33059.i = phi i1 [ %.532.i, %.lr.ph62.i ], [ %.229.i, %._crit_edge.i ]
  %23 = getelementptr inbounds ptr, ptr %2, i64 %.02461.i
  %24 = load ptr, ptr %23, align 8
  %25 = tail call noundef i32 @_Z19gmx_strncasecmp_minPKcS0_i(ptr noundef %0, ptr noundef %24, i32 noundef %9)
  %26 = icmp eq i32 %25, 0
  %.not37.i = icmp ne i32 %.260.i, -1
  %27 = trunc i64 %.02461.i to i32
  %28 = select i1 %26, i1 %.not37.i, i1 false
  %.532.i = select i1 %28, i1 true, i1 %.33059.i
  %.3.i = select i1 %26, i32 %27, i32 %.260.i
  %29 = add nuw nsw i64 %.02461.i, 1
  %exitcond73.not.i = icmp eq i64 %29, %13
  br i1 %exitcond73.not.i, label %._crit_edge63.i, label %.lr.ph62.i, !llvm.loop !71

._crit_edge63.i:                                  ; preds = %.lr.ph62.i
  %30 = icmp eq i32 %.3.i, -1
  br i1 %30, label %._crit_edge63.thread.i, label %.thread.i

._crit_edge63.thread.i:                           ; preds = %._crit_edge63.i, %3
  %.330.lcssa81.i = phi i1 [ %.532.i, %._crit_edge63.i ], [ false, %3 ]
  %31 = call ptr @strncpy(ptr noundef nonnull dereferenceable(1) %5, ptr noundef nonnull dereferenceable(1) %0, i64 noundef 4095) #21
  %32 = getelementptr inbounds i8, ptr %5, i64 4095
  store i8 0, ptr %32, align 1
  call void @_Z8upstringPc(ptr noundef nonnull %5)
  %33 = call i64 @strlen(ptr noundef nonnull dereferenceable(1) %5) #27
  %34 = trunc i64 %33 to i32
  %35 = icmp sgt i32 %34, 0
  br i1 %35, label %.lr.ph.i.i, label %_ZL9minstringPc.exit.i

.lr.ph.i.i:                                       ; preds = %._crit_edge63.thread.i, %40
  %indvars.iv.i.i = phi i64 [ %indvars.iv.next.i.i, %40 ], [ 0, %._crit_edge63.thread.i ]
  %36 = getelementptr inbounds i8, ptr %5, i64 %indvars.iv.i.i
  %37 = load i8, ptr %36, align 1
  %38 = icmp eq i8 %37, 45
  br i1 %38, label %39, label %40

39:                                               ; preds = %.lr.ph.i.i
  store i8 95, ptr %36, align 1
  br label %40

40:                                               ; preds = %39, %.lr.ph.i.i
  %indvars.iv.next.i.i = add nuw nsw i64 %indvars.iv.i.i, 1
  %41 = call i64 @strlen(ptr noundef nonnull dereferenceable(1) %5) #27
  %sext.i.i = shl i64 %41, 32
  %42 = ashr exact i64 %sext.i.i, 32
  %43 = icmp slt i64 %indvars.iv.next.i.i, %42
  br i1 %43, label %.lr.ph.i.i, label %_ZL9minstringPc.exit.i, !llvm.loop !68

_ZL9minstringPc.exit.i:                           ; preds = %40, %._crit_edge63.thread.i
  br i1 %14, label %.lr.ph69.i, label %.thread.i

.lr.ph69.i:                                       ; preds = %_ZL9minstringPc.exit.i, %_ZL9minstringPc.exit47.i
  %.068.i = phi i64 [ %60, %_ZL9minstringPc.exit47.i ], [ 0, %_ZL9minstringPc.exit.i ]
  %.567.i = phi i32 [ %.6.i, %_ZL9minstringPc.exit47.i ], [ -1, %_ZL9minstringPc.exit.i ]
  %.73466.i = phi i1 [ %.9.i, %_ZL9minstringPc.exit47.i ], [ %.330.lcssa81.i, %_ZL9minstringPc.exit.i ]
  %44 = getelementptr inbounds ptr, ptr %2, i64 %.068.i
  %45 = load ptr, ptr %44, align 8
  %46 = call ptr @strncpy(ptr noundef nonnull dereferenceable(1) %4, ptr noundef nonnull dereferenceable(1) %45, i64 noundef 4095) #21
  call void @_Z8upstringPc(ptr noundef nonnull %4)
  %47 = call i64 @strlen(ptr noundef nonnull dereferenceable(1) %4) #27
  %48 = trunc i64 %47 to i32
  %49 = icmp sgt i32 %48, 0
  br i1 %49, label %.lr.ph.i43.i, label %_ZL9minstringPc.exit47.i

.lr.ph.i43.i:                                     ; preds = %.lr.ph69.i, %54
  %indvars.iv.i44.i = phi i64 [ %indvars.iv.next.i45.i, %54 ], [ 0, %.lr.ph69.i ]
  %50 = getelementptr inbounds i8, ptr %4, i64 %indvars.iv.i44.i
  %51 = load i8, ptr %50, align 1
  %52 = icmp eq i8 %51, 45
  br i1 %52, label %53, label %54

53:                                               ; preds = %.lr.ph.i43.i
  store i8 95, ptr %50, align 1
  br label %54

54:                                               ; preds = %53, %.lr.ph.i43.i
  %indvars.iv.next.i45.i = add nuw nsw i64 %indvars.iv.i44.i, 1
  %55 = call i64 @strlen(ptr noundef nonnull dereferenceable(1) %4) #27
  %sext.i46.i = shl i64 %55, 32
  %56 = ashr exact i64 %sext.i46.i, 32
  %57 = icmp slt i64 %indvars.iv.next.i45.i, %56
  br i1 %57, label %.lr.ph.i43.i, label %_ZL9minstringPc.exit47.i, !llvm.loop !68

_ZL9minstringPc.exit47.i:                         ; preds = %54, %.lr.ph69.i
  %58 = call noundef ptr @strstr(ptr noundef nonnull dereferenceable(1) %4, ptr noundef nonnull dereferenceable(1) %5) #27
  %.not.i2 = icmp ne ptr %58, null
  %.not36.i = icmp ne i32 %.567.i, -1
  %59 = trunc i64 %.068.i to i32
  %.not72.i = select i1 %.not.i2, i1 %.not36.i, i1 false
  %.9.i = select i1 %.not72.i, i1 true, i1 %.73466.i
  %.6.i = select i1 %.not.i2, i32 %59, i32 %.567.i
  %60 = add nuw nsw i64 %.068.i, 1
  %exitcond74.not.i = icmp eq i64 %60, %13
  br i1 %exitcond74.not.i, label %.thread.i, label %.lr.ph69.i, !llvm.loop !72

.thread.i:                                        ; preds = %_ZL9minstringPc.exit47.i, %_ZL9minstringPc.exit.i, %._crit_edge63.i, %._crit_edge.i
  %.10.i = phi i1 [ %.532.i, %._crit_edge63.i ], [ %.229.i, %._crit_edge.i ], [ %.330.lcssa81.i, %_ZL9minstringPc.exit.i ], [ %.9.i, %_ZL9minstringPc.exit47.i ]
  %.7.i = phi i32 [ %.3.i, %._crit_edge63.i ], [ %.1.i, %._crit_edge.i ], [ -1, %_ZL9minstringPc.exit.i ], [ %.6.i, %_ZL9minstringPc.exit47.i ]
  br i1 %.10.i, label %61, label %_ZL18findGroupTemplatedIKPKcEiS1_N3gmx8ArrayRefIT_EE.exit

61:                                               ; preds = %.thread.i
  %62 = call i32 (ptr, ...) @printf(ptr noundef nonnull dereferenceable(1) @.str.86, ptr noundef %0)
  br label %_ZL18findGroupTemplatedIKPKcEiS1_N3gmx8ArrayRefIT_EE.exit

_ZL18findGroupTemplatedIKPKcEiS1_N3gmx8ArrayRefIT_EE.exit: ; preds = %.thread.i, %61
  %.8.i = phi i32 [ -1, %61 ], [ %.7.i, %.thread.i ]
  call void @llvm.lifetime.end.p0(i64 4096, ptr nonnull %4)
  call void @llvm.lifetime.end.p0(i64 4096, ptr nonnull %5)
  ret i32 %.8.i
}